target datalayout = "e-m:e-p270:32:32-p271:32:32-p272:64:64-i64:64-i128:128-f80:128-n8:16:32:64-S128"
target triple = "x86_64-unknown-linux-gnu"

%"class.icu_75::UObject" = type { ptr }
%"class.icu_75::UnicodeString" = type { %"class.icu_75::Replaceable", %"union.icu_75::UnicodeString::StackBufferOrFields" }
%"class.icu_75::Replaceable" = type { %"class.icu_75::UObject" }
%"union.icu_75::UnicodeString::StackBufferOrFields" = type { %struct.anon.0, [32 x i8] }
%struct.anon.0 = type { i16, i32, i32, ptr }
%"class.icu_75::FieldPosition" = type <{ %"class.icu_75::UObject", i32, i32, i32, [4 x i8] }>
%"class.icu_75::Char16Ptr" = type { ptr }
%struct.UFieldPosition = type { i32, i32, i32 }
%struct.anon = type { i16, [27 x i16] }
%"class.icu_75::StringPiece" = type <{ ptr, i32, [4 x i8] }>
%"class.icu_75::Formattable" = type { %"class.icu_75::UObject", %union.anon, ptr, ptr, i32, %"class.icu_75::UnicodeString" }
%union.anon = type { %struct.anon.1 }
%struct.anon.1 = type { ptr, i32 }

@_ZTVN6icu_7513UnicodeStringE = external unnamed_addr constant { [13 x ptr] }, align 8
@_ZTVN6icu_7511ReplaceableE = external unnamed_addr constant { [13 x ptr] }, align 8
@_ZTVN6icu_757UObjectE = external unnamed_addr constant { [5 x ptr] }, align 8
@_ZTVN6icu_7513FieldPositionE = external unnamed_addr constant { [5 x ptr] }, align 8

; Function Attrs: mustprogress nounwind uwtable
define linkonce_odr void @_ZN6icu_7511ReplaceableC2Ev(ptr noundef nonnull align 8 dereferenceable(8) %this) unnamed_addr #1 comdat align 2 {
entry:
  %this.addr = alloca ptr, align 8
  store ptr %this, ptr %this.addr, align 8
  %this1 = load ptr, ptr %this.addr, align 8
  call void @_ZN6icu_757UObjectC2Ev(ptr noundef nonnull align 8 dereferenceable(8) %this1) #8
  store ptr getelementptr inbounds ({ [13 x ptr] }, ptr @_ZTVN6icu_7511ReplaceableE, i32 0, i32 0, i32 2), ptr %this1, align 8
  ret void
}

; Function Attrs: mustprogress nounwind uwtable
define linkonce_odr void @_ZN6icu_757UObjectC2Ev(ptr noundef nonnull align 8 dereferenceable(8) %this) unnamed_addr #1 comdat align 2 {
entry:
  %this.addr = alloca ptr, align 8
  store ptr %this, ptr %this.addr, align 8
  %this1 = load ptr, ptr %this.addr, align 8
  store ptr getelementptr inbounds ({ [5 x ptr] }, ptr @_ZTVN6icu_757UObjectE, i32 0, i32 0, i32 2), ptr %this1, align 8
  ret void
}

; Function Attrs: mustprogress nounwind uwtable
define linkonce_odr void @_ZN6icu_759Char16PtrD2Ev(ptr noundef nonnull align 8 dereferenceable(8) %this) unnamed_addr #1 comdat align 2 {
entry:
  %this.addr = alloca ptr, align 8
  store ptr %this, ptr %this.addr, align 8
  %this1 = load ptr, ptr %this.addr, align 8
  %p_ = getelementptr inbounds %"class.icu_75::Char16Ptr", ptr %this1, i32 0, i32 0
  %0 = load ptr, ptr %p_, align 8
  call void asm sideeffect "", "rm,~{memory},~{dirflag},~{fpsr},~{flags}"(ptr %0) #8, !srcloc !4
  ret void
}

; Function Attrs: mustprogress nounwind uwtable
define linkonce_odr void @_ZN6icu_759Char16PtrC2EPDs(ptr noundef nonnull align 8 dereferenceable(8) %this, ptr noundef %p) unnamed_addr #1 comdat align 2 {
entry:
  %this.addr = alloca ptr, align 8
  %p.addr = alloca ptr, align 8
  store ptr %this, ptr %this.addr, align 8
  store ptr %p, ptr %p.addr, align 8
  %this1 = load ptr, ptr %this.addr, align 8
  %p_ = getelementptr inbounds %"class.icu_75::Char16Ptr", ptr %this1, i32 0, i32 0
  %0 = load ptr, ptr %p.addr, align 8
  store ptr %0, ptr %p_, align 8
  ret void
}

; Function Attrs: mustprogress nounwind uwtable
define linkonce_odr noundef i32 @_ZNK6icu_7513FieldPosition11getEndIndexEv(ptr noundef nonnull align 8 dereferenceable(20) %this) #1 comdat align 2 {
entry:
  %this.addr = alloca ptr, align 8
  store ptr %this, ptr %this.addr, align 8
  %this1 = load ptr, ptr %this.addr, align 8
  %fEndIndex = getelementptr inbounds %"class.icu_75::FieldPosition", ptr %this1, i32 0, i32 3
  %0 = load i32, ptr %fEndIndex, align 8
  ret i32 %0
}

; Function Attrs: mustprogress nounwind uwtable
define linkonce_odr noundef i32 @_ZNK6icu_7513FieldPosition13getBeginIndexEv(ptr noundef nonnull align 8 dereferenceable(20) %this) #1 comdat align 2 {
entry:
  %this.addr = alloca ptr, align 8
  store ptr %this, ptr %this.addr, align 8
  %this1 = load ptr, ptr %this.addr, align 8
  %fBeginIndex = getelementptr inbounds %"class.icu_75::FieldPosition", ptr %this1, i32 0, i32 2
  %0 = load i32, ptr %fBeginIndex, align 4
  ret i32 %0
}

; Function Attrs: mustprogress uwtable
define linkonce_odr void @_ZN6icu_7513UnicodeStringC2Ev(ptr noundef nonnull align 8 dereferenceable(64) %this) unnamed_addr #0 comdat align 2 {
entry:
  %this.addr = alloca ptr, align 8
  store ptr %this, ptr %this.addr, align 8
  %this1 = load ptr, ptr %this.addr, align 8
  call void @_ZN6icu_7511ReplaceableC2Ev(ptr noundef nonnull align 8 dereferenceable(8) %this1)
  store ptr getelementptr inbounds ({ [13 x ptr] }, ptr @_ZTVN6icu_7513UnicodeStringE, i32 0, i32 0, i32 2), ptr %this1, align 8
  %fUnion2 = getelementptr inbounds %"class.icu_75::UnicodeString", ptr %this1, i32 0, i32 1
  %fLengthAndFlags = getelementptr inbounds %struct.anon, ptr %fUnion2, i32 0, i32 0
  store i16 2, ptr %fLengthAndFlags, align 8
  ret void
}

; Function Attrs: mustprogress nounwind uwtable
define linkonce_odr void @_ZN6icu_7511StringPieceC2EPKci(ptr noundef nonnull align 8 dereferenceable(12) %this, ptr noundef %offset, i32 noundef %len) unnamed_addr #1 comdat align 2 {
entry:
  %this.addr = alloca ptr, align 8
  %offset.addr = alloca ptr, align 8
  %len.addr = alloca i32, align 4
  store ptr %this, ptr %this.addr, align 8
  store ptr %offset, ptr %offset.addr, align 8
  store i32 %len, ptr %len.addr, align 4
  %this1 = load ptr, ptr %this.addr, align 8
  %ptr_ = getelementptr inbounds %"class.icu_75::StringPiece", ptr %this1, i32 0, i32 0
  %0 = load ptr, ptr %offset.addr, align 8
  store ptr %0, ptr %ptr_, align 8
  %length_ = getelementptr inbounds %"class.icu_75::StringPiece", ptr %this1, i32 0, i32 1
  %1 = load i32, ptr %len.addr, align 4
  store i32 %1, ptr %length_, align 8
  ret void
}

; Function Attrs: mustprogress nounwind uwtable
define linkonce_odr void @_ZN6icu_7513FieldPosition8setFieldEi(ptr noundef nonnull align 8 dereferenceable(20) %this, i32 noundef %f) #1 comdat align 2 {
entry:
  %this.addr = alloca ptr, align 8
  %f.addr = alloca i32, align 4
  store ptr %this, ptr %this.addr, align 8
  store i32 %f, ptr %f.addr, align 4
  %this1 = load ptr, ptr %this.addr, align 8
  %0 = load i32, ptr %f.addr, align 4
  %fField = getelementptr inbounds %"class.icu_75::FieldPosition", ptr %this1, i32 0, i32 1
  store i32 %0, ptr %fField, align 8
  ret void
}

; Function Attrs: mustprogress nounwind uwtable
define linkonce_odr void @_ZN6icu_7513FieldPositionC2Ev(ptr noundef nonnull align 8 dereferenceable(20) %this) unnamed_addr #1 comdat align 2 {
entry:
  %this.addr = alloca ptr, align 8
  store ptr %this, ptr %this.addr, align 8
  %this1 = load ptr, ptr %this.addr, align 8
  %0 = getelementptr inbounds i8, ptr %this1, i64 0
  call void @llvm.memset.p0.i64(ptr align 8 %0, i8 0, i64 8, i1 false)
  call void @_ZN6icu_757UObjectC2Ev(ptr noundef nonnull align 8 dereferenceable(8) %this1) #8
  store ptr getelementptr inbounds ({ [5 x ptr] }, ptr @_ZTVN6icu_7513FieldPositionE, i32 0, i32 0, i32 2), ptr %this1, align 8
  %fField = getelementptr inbounds %"class.icu_75::FieldPosition", ptr %this1, i32 0, i32 1
  store i32 -1, ptr %fField, align 8
  %fBeginIndex = getelementptr inbounds %"class.icu_75::FieldPosition", ptr %this1, i32 0, i32 2
  store i32 0, ptr %fBeginIndex, align 4
  %fEndIndex = getelementptr inbounds %"class.icu_75::FieldPosition", ptr %this1, i32 0, i32 3
  store i32 0, ptr %fEndIndex, align 8
  ret void
}

; Function Attrs: mustprogress nounwind uwtable
define internal noundef signext i8 @_ZL9U_FAILURE10UErrorCode(i32 noundef %code) #1 {
entry:
  %code.addr = alloca i32, align 4
  store i32 %code, ptr %code.addr, align 4
  %0 = load i32, ptr %code.addr, align 4
  %cmp = icmp sgt i32 %0, 0
  %conv = zext i1 %cmp to i8
  ret i8 %conv
}

; Function Attrs: mustprogress uwtable
define i32 @unum_formatDecimal_75(ptr noundef %fmt, ptr noundef %number, i32 noundef %length, ptr noundef %result, i32 noundef %resultLength, ptr noundef %pos, ptr noundef %status) #0 personality ptr @__gxx_personality_v0 {
entry:
  %retval = alloca i32, align 4
  %fmt.addr = alloca ptr, align 8
  %number.addr = alloca ptr, align 8
  %length.addr = alloca i32, align 4
  %result.addr = alloca ptr, align 8
  %resultLength.addr = alloca i32, align 4
  %pos.addr = alloca ptr, align 8
  %status.addr = alloca ptr, align 8
  %fp = alloca %"class.icu_75::FieldPosition", align 8
  %exn.slot = alloca ptr, align 8
  %ehselector.slot = alloca i32, align 4
  %numSP = alloca %"class.icu_75::StringPiece", align 8
  %numFmtbl = alloca %"class.icu_75::Formattable", align 8
  %agg.tmp = alloca %"class.icu_75::StringPiece", align 8
  %resultStr = alloca %"class.icu_75::UnicodeString", align 8
  %agg.tmp31 = alloca %"class.icu_75::Char16Ptr", align 8
  store ptr %fmt, ptr %fmt.addr, align 8
  store ptr %number, ptr %number.addr, align 8
  store i32 %length, ptr %length.addr, align 4
  store ptr %result, ptr %result.addr, align 8
  store i32 %resultLength, ptr %resultLength.addr, align 4
  store ptr %pos, ptr %pos.addr, align 8
  store ptr %status, ptr %status.addr, align 8
  %0 = load ptr, ptr %status.addr, align 8
  %1 = load i32, ptr %0, align 4
  %call = call noundef signext i8 @_ZL9U_FAILURE10UErrorCode(i32 noundef %1)
  %tobool = icmp ne i8 %call, 0
  br i1 %tobool, label %if.then, label %if.end

if.then:                                          ; preds = %entry
  store i32 -1, ptr %retval, align 4
  br label %return

if.end:                                           ; preds = %entry
  %2 = load ptr, ptr %result.addr, align 8
  %cmp = icmp eq ptr %2, null
  br i1 %cmp, label %land.lhs.true, label %lor.lhs.false

land.lhs.true:                                    ; preds = %if.end
  %3 = load i32, ptr %resultLength.addr, align 4
  %cmp1 = icmp ne i32 %3, 0
  br i1 %cmp1, label %if.then3, label %lor.lhs.false

lor.lhs.false:                                    ; preds = %land.lhs.true, %if.end
  %4 = load i32, ptr %resultLength.addr, align 4
  %cmp2 = icmp slt i32 %4, 0
  br i1 %cmp2, label %if.then3, label %if.end4

if.then3:                                         ; preds = %lor.lhs.false, %land.lhs.true
  %5 = load ptr, ptr %status.addr, align 8
  store i32 1, ptr %5, align 4
  store i32 -1, ptr %retval, align 4
  br label %return

if.end4:                                          ; preds = %lor.lhs.false
  call void @_ZN6icu_7513FieldPositionC2Ev(ptr noundef nonnull align 8 dereferenceable(20) %fp)
  %6 = load ptr, ptr %pos.addr, align 8
  %cmp5 = icmp ne ptr %6, null
  br i1 %cmp5, label %if.then6, label %if.end7

if.then6:                                         ; preds = %if.end4
  %7 = load ptr, ptr %pos.addr, align 8
  %field = getelementptr inbounds %struct.UFieldPosition, ptr %7, i32 0, i32 0
  %8 = load i32, ptr %field, align 4
  invoke void @_ZN6icu_7513FieldPosition8setFieldEi(ptr noundef nonnull align 8 dereferenceable(20) %fp, i32 noundef %8)
          to label %invoke.cont unwind label %lpad

invoke.cont:                                      ; preds = %if.then6
  br label %if.end7

lpad:                                             ; preds = %invoke.cont12, %if.end11, %if.then6
  %9 = landingpad { ptr, i32 }
          cleanup
  %10 = extractvalue { ptr, i32 } %9, 0
  store ptr %10, ptr %exn.slot, align 8
  %11 = extractvalue { ptr, i32 } %9, 1
  store i32 %11, ptr %ehselector.slot, align 4
  br label %ehcleanup37

if.end7:                                          ; preds = %invoke.cont, %if.end4
  %12 = load i32, ptr %length.addr, align 4
  %cmp8 = icmp slt i32 %12, 0
  br i1 %cmp8, label %if.then9, label %if.end11

if.then9:                                         ; preds = %if.end7
  %13 = load ptr, ptr %number.addr, align 8
  %call10 = call i64 @strlen(ptr noundef %13) #4
  %conv = trunc i64 %call10 to i32
  store i32 %conv, ptr %length.addr, align 4
  br label %if.end11

if.end11:                                         ; preds = %if.then9, %if.end7
  %14 = load ptr, ptr %number.addr, align 8
  %15 = load i32, ptr %length.addr, align 4
  invoke void @_ZN6icu_7511StringPieceC2EPKci(ptr noundef nonnull align 8 dereferenceable(12) %numSP, ptr noundef %14, i32 noundef %15)
          to label %invoke.cont12 unwind label %lpad

invoke.cont12:                                    ; preds = %if.end11
  call void @llvm.memcpy.p0.p0.i64(ptr align 8 %agg.tmp, ptr align 8 %numSP, i64 16, i1 false)
  %16 = load ptr, ptr %status.addr, align 8
  %17 = getelementptr inbounds { ptr, i32 }, ptr %agg.tmp, i32 0, i32 0
  %18 = load ptr, ptr %17, align 8
  %19 = getelementptr inbounds { ptr, i32 }, ptr %agg.tmp, i32 0, i32 1
  %20 = load i32, ptr %19, align 8
  invoke void @_ZN6icu_7511FormattableC1ENS_11StringPieceER10UErrorCode(ptr noundef nonnull align 8 dereferenceable(112) %numFmtbl, ptr %18, i32 %20, ptr noundef nonnull align 4 dereferenceable(4) %16)
          to label %invoke.cont13 unwind label %lpad

invoke.cont13:                                    ; preds = %invoke.cont12
  invoke void @_ZN6icu_7513UnicodeStringC2Ev(ptr noundef nonnull align 8 dereferenceable(64) %resultStr)
          to label %invoke.cont15 unwind label %lpad14

invoke.cont15:                                    ; preds = %invoke.cont13
  %21 = load i32, ptr %resultLength.addr, align 4
  %cmp16 = icmp sgt i32 %21, 0
  br i1 %cmp16, label %if.then17, label %if.end21

if.then17:                                        ; preds = %invoke.cont15
  %22 = load ptr, ptr %result.addr, align 8
  %23 = load i32, ptr %resultLength.addr, align 4
  %call20 = invoke noundef nonnull align 8 dereferenceable(64) ptr @_ZN6icu_7513UnicodeString5setToEPDsii(ptr noundef nonnull align 8 dereferenceable(64) %resultStr, ptr noundef %22, i32 noundef 0, i32 noundef %23)
          to label %invoke.cont19 unwind label %lpad18

invoke.cont19:                                    ; preds = %if.then17
  br label %if.end21

lpad14:                                           ; preds = %invoke.cont13
  %24 = landingpad { ptr, i32 }
          cleanup
  %25 = extractvalue { ptr, i32 } %24, 0
  store ptr %25, ptr %exn.slot, align 8
  %26 = extractvalue { ptr, i32 } %24, 1
  store i32 %26, ptr %ehselector.slot, align 4
  br label %ehcleanup36

lpad18:                                           ; preds = %if.end30, %invoke.cont26, %if.then25, %if.end21, %if.then17
  %27 = landingpad { ptr, i32 }
          cleanup
  %28 = extractvalue { ptr, i32 } %27, 0
  store ptr %28, ptr %exn.slot, align 8
  %29 = extractvalue { ptr, i32 } %27, 1
  store i32 %29, ptr %ehselector.slot, align 4
  br label %ehcleanup

if.end21:                                         ; preds = %invoke.cont19, %invoke.cont15
  %30 = load ptr, ptr %fmt.addr, align 8
  %31 = load ptr, ptr %status.addr, align 8
  %vtable = load ptr, ptr %30, align 8
  %vfn = getelementptr inbounds ptr, ptr %vtable, i64 5
  %32 = load ptr, ptr %vfn, align 8
  %call23 = invoke noundef nonnull align 8 dereferenceable(64) ptr %32(ptr noundef nonnull align 8 dereferenceable(356) %30, ptr noundef nonnull align 8 dereferenceable(112) %numFmtbl, ptr noundef nonnull align 8 dereferenceable(64) %resultStr, ptr noundef nonnull align 8 dereferenceable(20) %fp, ptr noundef nonnull align 4 dereferenceable(4) %31)
          to label %invoke.cont22 unwind label %lpad18

invoke.cont22:                                    ; preds = %if.end21
  %33 = load ptr, ptr %pos.addr, align 8
  %cmp24 = icmp ne ptr %33, null
  br i1 %cmp24, label %if.then25, label %if.end30

if.then25:                                        ; preds = %invoke.cont22
  %call27 = invoke noundef i32 @_ZNK6icu_7513FieldPosition13getBeginIndexEv(ptr noundef nonnull align 8 dereferenceable(20) %fp)
          to label %invoke.cont26 unwind label %lpad18

invoke.cont26:                                    ; preds = %if.then25
  %34 = load ptr, ptr %pos.addr, align 8
  %beginIndex = getelementptr inbounds %struct.UFieldPosition, ptr %34, i32 0, i32 1
  store i32 %call27, ptr %beginIndex, align 4
  %call29 = invoke noundef i32 @_ZNK6icu_7513FieldPosition11getEndIndexEv(ptr noundef nonnull align 8 dereferenceable(20) %fp)
          to label %invoke.cont28 unwind label %lpad18

invoke.cont28:                                    ; preds = %invoke.cont26
  %35 = load ptr, ptr %pos.addr, align 8
  %endIndex = getelementptr inbounds %struct.UFieldPosition, ptr %35, i32 0, i32 2
  store i32 %call29, ptr %endIndex, align 4
  br label %if.end30

if.end30:                                         ; preds = %invoke.cont28, %invoke.cont22
  %36 = load ptr, ptr %result.addr, align 8
  invoke void @_ZN6icu_759Char16PtrC2EPDs(ptr noundef nonnull align 8 dereferenceable(8) %agg.tmp31, ptr noundef %36)
          to label %invoke.cont32 unwind label %lpad18

invoke.cont32:                                    ; preds = %if.end30
  %37 = load i32, ptr %resultLength.addr, align 4
  %38 = load ptr, ptr %status.addr, align 8
  %call35 = invoke noundef i32 @_ZNK6icu_7513UnicodeString7extractENS_9Char16PtrEiR10UErrorCode(ptr noundef nonnull align 8 dereferenceable(64) %resultStr, ptr noundef %agg.tmp31, i32 noundef %37, ptr noundef nonnull align 4 dereferenceable(4) %38)
          to label %invoke.cont34 unwind label %lpad33

invoke.cont34:                                    ; preds = %invoke.cont32
  store i32 %call35, ptr %retval, align 4
  call void @_ZN6icu_759Char16PtrD2Ev(ptr noundef nonnull align 8 dereferenceable(8) %agg.tmp31) #8
  call void @_ZN6icu_7513UnicodeStringD1Ev(ptr noundef nonnull align 8 dereferenceable(64) %resultStr) #8
  call void @_ZN6icu_7511FormattableD1Ev(ptr noundef nonnull align 8 dereferenceable(112) %numFmtbl) #8
  call void @_ZN6icu_7513FieldPositionD1Ev(ptr noundef nonnull align 8 dereferenceable(20) %fp) #8
  br label %return

lpad33:                                           ; preds = %invoke.cont32
  %39 = landingpad { ptr, i32 }
          cleanup
  %40 = extractvalue { ptr, i32 } %39, 0
  store ptr %40, ptr %exn.slot, align 8
  %41 = extractvalue { ptr, i32 } %39, 1
  store i32 %41, ptr %ehselector.slot, align 4
  call void @_ZN6icu_759Char16PtrD2Ev(ptr noundef nonnull align 8 dereferenceable(8) %agg.tmp31) #8
  br label %ehcleanup

ehcleanup:                                        ; preds = %lpad33, %lpad18
  call void @_ZN6icu_7513UnicodeStringD1Ev(ptr noundef nonnull align 8 dereferenceable(64) %resultStr) #8
  br label %ehcleanup36

ehcleanup36:                                      ; preds = %ehcleanup, %lpad14
  call void @_ZN6icu_7511FormattableD1Ev(ptr noundef nonnull align 8 dereferenceable(112) %numFmtbl) #8
  br label %ehcleanup37

ehcleanup37:                                      ; preds = %ehcleanup36, %lpad
  call void @_ZN6icu_7513FieldPositionD1Ev(ptr noundef nonnull align 8 dereferenceable(20) %fp) #8
  br label %eh.resume

return:                                           ; preds = %invoke.cont34, %if.then3, %if.then
  %42 = load i32, ptr %retval, align 4
  ret i32 %42

eh.resume:                                        ; preds = %ehcleanup37
  %exn = load ptr, ptr %exn.slot, align 8
  %sel = load i32, ptr %ehselector.slot, align 4
  %lpad.val = insertvalue { ptr, i32 } poison, ptr %exn, 0
  %lpad.val38 = insertvalue { ptr, i32 } %lpad.val, i32 %sel, 1
  resume { ptr, i32 } %lpad.val38
}