; Function Attrs: mustprogress uwtable
define noundef i32 @unum_formatDecimal_75(ptr noundef %fmt, ptr noundef %number, i32 noundef %length, ptr noundef %result, i32 noundef %resultLength, ptr noundef %pos, ptr noundef %status) local_unnamed_addr #0 personality ptr @__gxx_personality_v0 {
entry:
  %fp = alloca %"class.icu_75::FieldPosition", align 8
  %numFmtbl = alloca %"class.icu_75::Formattable", align 8
  %resultStr = alloca %"class.icu_75::UnicodeString", align 8
  %agg.tmp31 = alloca %"class.icu_75::Char16Ptr", align 8
  %0 = load i32, ptr %status, align 4
  %cmp.i = icmp slt i32 %0, 1
  br i1 %cmp.i, label %if.end, label %return

if.end:                                           ; preds = %entry
  %cmp = icmp eq ptr %result, null
  %cmp1 = icmp ne i32 %resultLength, 0
  %or.cond = and i1 %cmp, %cmp1
  %cmp2 = icmp slt i32 %resultLength, 0
  %or.cond1 = or i1 %cmp2, %or.cond
  br i1 %or.cond1, label %if.then3, label %if.end4

if.then3:                                         ; preds = %if.end
  store i32 1, ptr %status, align 4
  br label %return

if.end4:                                          ; preds = %if.end
  store ptr getelementptr inbounds ({ [5 x ptr] }, ptr @_ZTVN6icu_7513FieldPositionE, i64 0, i32 0, i64 2), ptr %fp, align 8
  %fField.i = getelementptr inbounds i8, ptr %fp, i64 8
  store i32 -1, ptr %fField.i, align 8
  %fBeginIndex.i = getelementptr inbounds i8, ptr %fp, i64 12
  store i32 0, ptr %fBeginIndex.i, align 4
  %fEndIndex.i = getelementptr inbounds i8, ptr %fp, i64 16
  store i32 0, ptr %fEndIndex.i, align 8
  %cmp5.not = icmp eq ptr %pos, null
  br i1 %cmp5.not, label %if.end7, label %if.then6

if.then6:                                         ; preds = %if.end4
  %1 = load i32, ptr %pos, align 4
  store i32 %1, ptr %fField.i, align 8
  br label %if.end7

lpad:                                             ; preds = %if.end11
  %2 = landingpad { ptr, i32 }
          cleanup
  br label %ehcleanup37

if.end7:                                          ; preds = %if.then6, %if.end4
  %cmp8 = icmp slt i32 %length, 0
  br i1 %cmp8, label %if.then9, label %if.end11

if.then9:                                         ; preds = %if.end7
  %call10 = tail call i64 @strlen(ptr noundef nonnull dereferenceable(1) %number) #11
  %conv = trunc i64 %call10 to i32
  br label %if.end11

if.end11:                                         ; preds = %if.then9, %if.end7
  %length.addr.0 = phi i32 [ %conv, %if.then9 ], [ %length, %if.end7 ]
  invoke void @_ZN6icu_7511FormattableC1ENS_11StringPieceER10UErrorCode(ptr noundef nonnull align 8 dereferenceable(112) %numFmtbl, ptr %number, i32 %length.addr.0, ptr noundef nonnull align 4 dereferenceable(4) %status)
          to label %invoke.cont15 unwind label %lpad

invoke.cont15:                                    ; preds = %if.end11
  store ptr getelementptr inbounds ({ [13 x ptr] }, ptr @_ZTVN6icu_7513UnicodeStringE, i64 0, i32 0, i64 2), ptr %resultStr, align 8
  %fUnion2.i = getelementptr inbounds i8, ptr %resultStr, i64 8
  store i16 2, ptr %fUnion2.i, align 8
  %cmp16.not = icmp eq i32 %resultLength, 0
  br i1 %cmp16.not, label %if.end21, label %if.then17

if.then17:                                        ; preds = %invoke.cont15
  %call20 = invoke noundef nonnull align 8 dereferenceable(64) ptr @_ZN6icu_7513UnicodeString5setToEPDsii(ptr noundef nonnull align 8 dereferenceable(64) %resultStr, ptr noundef %result, i32 noundef 0, i32 noundef %resultLength)
          to label %if.end21 unwind label %lpad18

lpad18:                                           ; preds = %if.end21, %if.then17
  %3 = landingpad { ptr, i32 }
          cleanup
  br label %ehcleanup

if.end21:                                         ; preds = %if.then17, %invoke.cont15
  %vtable = load ptr, ptr %fmt, align 8
  %vfn = getelementptr inbounds i8, ptr %vtable, i64 40
  %4 = load ptr, ptr %vfn, align 8
  %call23 = invoke noundef nonnull align 8 dereferenceable(64) ptr %4(ptr noundef nonnull align 8 dereferenceable(356) %fmt, ptr noundef nonnull align 8 dereferenceable(112) %numFmtbl, ptr noundef nonnull align 8 dereferenceable(64) %resultStr, ptr noundef nonnull align 8 dereferenceable(20) %fp, ptr noundef nonnull align 4 dereferenceable(4) %status)
          to label %invoke.cont22 unwind label %lpad18

invoke.cont22:                                    ; preds = %if.end21
  br i1 %cmp5.not, label %if.end30, label %if.then25

if.then25:                                        ; preds = %invoke.cont22
  %beginIndex = getelementptr inbounds i8, ptr %pos, i64 4
  %5 = load <2 x i32>, ptr %fBeginIndex.i, align 4
  store <2 x i32> %5, ptr %beginIndex, align 4
  br label %if.end30

if.end30:                                         ; preds = %if.then25, %invoke.cont22
  store ptr %result, ptr %agg.tmp31, align 8
  %call35 = invoke noundef i32 @_ZNK6icu_7513UnicodeString7extractENS_9Char16PtrEiR10UErrorCode(ptr noundef nonnull align 8 dereferenceable(64) %resultStr, ptr noundef nonnull %agg.tmp31, i32 noundef %resultLength, ptr noundef nonnull align 4 dereferenceable(4) %status)
          to label %invoke.cont34 unwind label %lpad33

invoke.cont34:                                    ; preds = %if.end30
  %6 = load ptr, ptr %agg.tmp31, align 8
  call void asm sideeffect "", "rm,~{memory},~{dirflag},~{fpsr},~{flags}"(ptr %6) #10, !srcloc !4
  call void @_ZN6icu_7513UnicodeStringD1Ev(ptr noundef nonnull align 8 dereferenceable(64) %resultStr) #10
  call void @_ZN6icu_7511FormattableD1Ev(ptr noundef nonnull align 8 dereferenceable(112) %numFmtbl) #10
  call void @_ZN6icu_7513FieldPositionD1Ev(ptr noundef nonnull align 8 dereferenceable(20) %fp) #10
  br label %return

lpad33:                                           ; preds = %if.end30
  %7 = landingpad { ptr, i32 }
          cleanup
  %8 = load ptr, ptr %agg.tmp31, align 8
  call void asm sideeffect "", "rm,~{memory},~{dirflag},~{fpsr},~{flags}"(ptr %8) #10, !srcloc !4
  br label %ehcleanup

ehcleanup:                                        ; preds = %lpad33, %lpad18
  %.pn = phi { ptr, i32 } [ %7, %lpad33 ], [ %3, %lpad18 ]
  call void @_ZN6icu_7513UnicodeStringD1Ev(ptr noundef nonnull align 8 dereferenceable(64) %resultStr) #10
  call void @_ZN6icu_7511FormattableD1Ev(ptr noundef nonnull align 8 dereferenceable(112) %numFmtbl) #10
  br label %ehcleanup37

ehcleanup37:                                      ; preds = %ehcleanup, %lpad
  %.pn.pn.pn = phi { ptr, i32 } [ %.pn, %ehcleanup ], [ %2, %lpad ]
  call void @_ZN6icu_7513FieldPositionD1Ev(ptr noundef nonnull align 8 dereferenceable(20) %fp) #10
  resume { ptr, i32 } %.pn.pn.pn

return:                                           ; preds = %entry, %invoke.cont34, %if.then3
  %retval.0 = phi i32 [ -1, %if.then3 ], [ %call35, %invoke.cont34 ], [ -1, %entry ]
  ret i32 %retval.0
}